; Function Attrs: mustprogress nounwind uwtable
define hidden void @_ZN3smt9tmp_enodeD2Ev(ptr nocapture noundef nonnull readonly align 8 dereferenceable(32) %this) unnamed_addr #5 align 2 personality ptr @__gxx_personality_v0 {
entry:
  %m_enode_data = getelementptr inbounds i8, ptr %this, i64 24
  %0 = load ptr, ptr %m_enode_data, align 8
  %cmp.i = icmp eq ptr %0, null
  br i1 %cmp.i, label %invoke.cont, label %if.end.i

if.end.i:                                         ; preds = %entry
  invoke void @_ZN6memory10deallocateEPv(ptr noundef nonnull %0)
          to label %invoke.cont unwind label %terminate.lpad

invoke.cont:                                      ; preds = %entry, %if.end.i
  %m_data.i = getelementptr inbounds i8, ptr %this, i64 8
  %1 = load ptr, ptr %m_data.i, align 8
  %cmp.i.i = icmp eq ptr %1, null
  br i1 %cmp.i.i, label %_ZN7tmp_appD2Ev.exit, label %if.end.i.i

if.end.i.i:                                       ; preds = %invoke.cont
  invoke void @_ZN6memory10deallocateEPv(ptr noundef nonnull %1)
          to label %_ZN7tmp_appD2Ev.exit unwind label %terminate.lpad.i

terminate.lpad.i:                                 ; preds = %if.end.i.i
  %2 = landingpad { ptr, i32 }
          catch ptr null
  %3 = extractvalue { ptr, i32 } %2, 0
  tail call void @__clang_call_terminate(ptr %3) #18
  unreachable

_ZN7tmp_appD2Ev.exit:                             ; preds = %invoke.cont, %if.end.i.i
  ret void

terminate.lpad:                                   ; preds = %if.end.i
  %4 = landingpad { ptr, i32 }
          catch ptr null
  %5 = extractvalue { ptr, i32 } %4, 0
  tail call void @__clang_call_terminate(ptr %5) #18
  unreachable
}